; Function Attrs: nounwind uwtable
define range(i32 0, -1) i32 @Gia_ManDupFf2In_rec(ptr noundef %0, ptr noundef %1) local_unnamed_addr #0 {
  %3 = getelementptr inbounds nuw i8, ptr %1, i64 8
  %4 = load i32, ptr %3, align 4, !tbaa !36
  %.not = icmp eq i32 %4, -1
  br i1 %.not, label %5, label %common.ret11

common.ret11:                                     ; preds = %2, %5
  %common.ret11.op = phi i32 [ %35, %5 ], [ %4, %2 ]
  ret i32 %common.ret11.op

5:                                                ; preds = %2
  %6 = load i64, ptr %1, align 4
  %7 = and i64 %6, 536870911
  %8 = sub nsw i64 0, %7
  %9 = getelementptr inbounds %struct.Gia_Obj_t_, ptr %1, i64 %8
  %10 = tail call i32 @Gia_ManDupFf2In_rec(ptr noundef %0, ptr noundef nonnull %9)
  %11 = load i64, ptr %1, align 4
  %12 = lshr i64 %11, 32
  %13 = and i64 %12, 536870911
  %14 = sub nsw i64 0, %13
  %15 = getelementptr inbounds %struct.Gia_Obj_t_, ptr %1, i64 %14
  %16 = tail call i32 @Gia_ManDupFf2In_rec(ptr noundef %0, ptr noundef nonnull %15)
  %17 = load i64, ptr %1, align 4
  %18 = and i64 %17, 536870911
  %19 = sub nsw i64 0, %18
  %20 = getelementptr inbounds %struct.Gia_Obj_t_, ptr %1, i64 %19, i32 1
  %21 = load i32, ptr %20, align 4, !tbaa !36
  %22 = trunc i64 %17 to i32
  %23 = lshr i32 %22, 29
  %24 = and i32 %23, 1
  %25 = xor i32 %24, %21
  %26 = lshr i64 %17, 32
  %27 = and i64 %26, 536870911
  %28 = sub nsw i64 0, %27
  %29 = getelementptr inbounds %struct.Gia_Obj_t_, ptr %1, i64 %28, i32 1
  %30 = load i32, ptr %29, align 4, !tbaa !36
  %31 = lshr i64 %17, 61
  %32 = trunc nuw nsw i64 %31 to i32
  %33 = and i32 %32, 1
  %34 = xor i32 %33, %30
  %35 = tail call fastcc i32 @Gia_ManAppendAnd(ptr noundef %0, i32 noundef %25, i32 noundef %34)
  store i32 %35, ptr %3, align 4, !tbaa !36
  br label %common.ret11
}